target datalayout = "e-m:e-p270:32:32-p271:32:32-p272:64:64-i64:64-i128:128-f80:128-n8:16:32:64-S128"
target triple = "x86_64-pc-linux-gnu"

%struct.mbedtls_ecp_group = type { i32, %struct.mbedtls_mpi, %struct.mbedtls_mpi, %struct.mbedtls_mpi, %struct.mbedtls_ecp_point, %struct.mbedtls_mpi, i64, i64, i32, ptr, ptr, ptr, ptr, ptr, i64 }
%struct.mbedtls_ecp_point = type { %struct.mbedtls_mpi, %struct.mbedtls_mpi, %struct.mbedtls_mpi }
%struct.mbedtls_mpi = type { ptr, i16, i16 }
%struct.mbedtls_ecp_keypair = type { %struct.mbedtls_ecp_group, %struct.mbedtls_mpi, %struct.mbedtls_ecp_point }

; Function Attrs: nounwind uwtable
define hidden i32 @mbedtls_ecp_get_type(ptr noundef %0) #0 {
  %2 = alloca i32, align 4
  %3 = alloca ptr, align 8
  store ptr %0, ptr %3, align 8, !tbaa !25
  %4 = load ptr, ptr %3, align 8, !tbaa !25
  %5 = getelementptr inbounds nuw %struct.mbedtls_ecp_group, ptr %4, i32 0, i32 4
  %6 = getelementptr inbounds nuw %struct.mbedtls_ecp_point, ptr %5, i32 0, i32 0
  %7 = getelementptr inbounds nuw %struct.mbedtls_mpi, ptr %6, i32 0, i32 0
  %8 = load ptr, ptr %7, align 8, !tbaa !27
  %9 = icmp eq ptr %8, null
  br i1 %9, label %10, label %11

10:                                               ; preds = %1
  store i32 0, ptr %2, align 4
  br label %20

11:                                               ; preds = %1
  %12 = load ptr, ptr %3, align 8, !tbaa !25
  %13 = getelementptr inbounds nuw %struct.mbedtls_ecp_group, ptr %12, i32 0, i32 4
  %14 = getelementptr inbounds nuw %struct.mbedtls_ecp_point, ptr %13, i32 0, i32 1
  %15 = getelementptr inbounds nuw %struct.mbedtls_mpi, ptr %14, i32 0, i32 0
  %16 = load ptr, ptr %15, align 8, !tbaa !33
  %17 = icmp eq ptr %16, null
  br i1 %17, label %18, label %19

18:                                               ; preds = %11
  store i32 2, ptr %2, align 4
  br label %20

19:                                               ; preds = %11
  store i32 1, ptr %2, align 4
  br label %20

20:                                               ; preds = %19, %18, %10
  %21 = load i32, ptr %2, align 4
  ret i32 %21
}

; Function Attrs: nounwind uwtable
define hidden i32 @mbedtls_ecp_write_key_ext(ptr noundef %0, ptr noundef %1, ptr noundef %2, i64 noundef %3) #0 {
  %5 = alloca i32, align 4
  %6 = alloca ptr, align 8
  %7 = alloca ptr, align 8
  %8 = alloca ptr, align 8
  %9 = alloca i64, align 8
  %10 = alloca i64, align 8
  %11 = alloca i32, align 4
  store ptr %0, ptr %6, align 8, !tbaa !45
  store ptr %1, ptr %7, align 8, !tbaa !48
  store ptr %2, ptr %8, align 8, !tbaa !22
  store i64 %3, ptr %9, align 8, !tbaa !7
  call void @llvm.lifetime.start.p0(i64 8, ptr %10) #11
  %12 = load ptr, ptr %6, align 8, !tbaa !45
  %13 = getelementptr inbounds nuw %struct.mbedtls_ecp_keypair, ptr %12, i32 0, i32 0
  %14 = getelementptr inbounds nuw %struct.mbedtls_ecp_group, ptr %13, i32 0, i32 7
  %15 = load i64, ptr %14, align 8, !tbaa !61
  %16 = add i64 %15, 7
  %17 = udiv i64 %16, 8
  store i64 %17, ptr %10, align 8, !tbaa !7
  %18 = load i64, ptr %10, align 8, !tbaa !7
  %19 = load i64, ptr %9, align 8, !tbaa !7
  %20 = icmp ugt i64 %18, %19
  br i1 %20, label %21, label %23

21:                                               ; preds = %4
  %22 = load ptr, ptr %7, align 8, !tbaa !48
  store i64 0, ptr %22, align 8, !tbaa !7
  store i32 -20224, ptr %5, align 4
  store i32 1, ptr %11, align 4
  br label %56

23:                                               ; preds = %4
  %24 = load i64, ptr %10, align 8, !tbaa !7
  %25 = load ptr, ptr %7, align 8, !tbaa !48
  store i64 %24, ptr %25, align 8, !tbaa !7
  %26 = load ptr, ptr %6, align 8, !tbaa !45
  %27 = getelementptr inbounds nuw %struct.mbedtls_ecp_keypair, ptr %26, i32 0, i32 1
  %28 = getelementptr inbounds nuw %struct.mbedtls_mpi, ptr %27, i32 0, i32 2
  %29 = load i16, ptr %28, align 2, !tbaa !62
  %30 = zext i16 %29 to i32
  %31 = icmp eq i32 %30, 0
  br i1 %31, label %32, label %33

32:                                               ; preds = %23
  store i32 -20352, ptr %5, align 4
  store i32 1, ptr %11, align 4
  br label %56

33:                                               ; preds = %23
  %34 = load ptr, ptr %6, align 8, !tbaa !45
  %35 = getelementptr inbounds nuw %struct.mbedtls_ecp_keypair, ptr %34, i32 0, i32 0
  %36 = call i32 @mbedtls_ecp_get_type(ptr noundef %35)
  %37 = icmp eq i32 %36, 2
  br i1 %37, label %38, label %44

38:                                               ; preds = %33
  %39 = load ptr, ptr %6, align 8, !tbaa !45
  %40 = getelementptr inbounds nuw %struct.mbedtls_ecp_keypair, ptr %39, i32 0, i32 1
  %41 = load ptr, ptr %8, align 8, !tbaa !22
  %42 = load i64, ptr %10, align 8, !tbaa !7
  %43 = call i32 @mbedtls_mpi_write_binary_le(ptr noundef %40, ptr noundef %41, i64 noundef %42)
  store i32 %43, ptr %5, align 4
  store i32 1, ptr %11, align 4
  br label %56

44:                                               ; preds = %33
  %45 = load ptr, ptr %6, align 8, !tbaa !45
  %46 = getelementptr inbounds nuw %struct.mbedtls_ecp_keypair, ptr %45, i32 0, i32 0
  %47 = call i32 @mbedtls_ecp_get_type(ptr noundef %46)
  %48 = icmp eq i32 %47, 1
  br i1 %48, label %49, label %55

49:                                               ; preds = %44
  %50 = load ptr, ptr %6, align 8, !tbaa !45
  %51 = getelementptr inbounds nuw %struct.mbedtls_ecp_keypair, ptr %50, i32 0, i32 1
  %52 = load ptr, ptr %8, align 8, !tbaa !22
  %53 = load i64, ptr %10, align 8, !tbaa !7
  %54 = call i32 @mbedtls_mpi_write_binary(ptr noundef %51, ptr noundef %52, i64 noundef %53)
  store i32 %54, ptr %5, align 4
  store i32 1, ptr %11, align 4
  br label %56

55:                                               ; preds = %44
  store i32 -110, ptr %5, align 4
  store i32 1, ptr %11, align 4
  br label %56

56:                                               ; preds = %55, %49, %38, %32, %21
  call void @llvm.lifetime.end.p0(i64 8, ptr %10) #11
  %57 = load i32, ptr %5, align 4
  ret i32 %57
}