; Function Attrs: nounwind uwtable
define hidden i32 @mbedtls_ecp_write_key_ext(ptr noundef %0, ptr noundef writeonly captures(none) initializes((0, 8)) %1, ptr noundef %2, i64 noundef %3) local_unnamed_addr #7 {
  %5 = getelementptr inbounds nuw i8, ptr %0, i64 128
  %6 = load i64, ptr %5, align 8, !tbaa !58
  %7 = add i64 %6, 7
  %8 = lshr i64 %7, 3
  %9 = icmp ugt i64 %8, %3
  br i1 %9, label %10, label %11

10:                                               ; preds = %4
  store i64 0, ptr %1, align 8, !tbaa !33
  br label %mbedtls_ecp_get_type.exit18.thread

11:                                               ; preds = %4
  store i64 %8, ptr %1, align 8, !tbaa !33
  %12 = getelementptr inbounds nuw i8, ptr %0, i64 192
  %13 = getelementptr inbounds nuw i8, ptr %0, i64 202
  %14 = load i16, ptr %13, align 2, !tbaa !59
  %15 = icmp eq i16 %14, 0
  br i1 %15, label %mbedtls_ecp_get_type.exit18.thread, label %16

16:                                               ; preds = %11
  %17 = getelementptr inbounds nuw i8, ptr %0, i64 56
  %18 = load ptr, ptr %17, align 8, !tbaa !19
  %19 = icmp eq ptr %18, null
  br i1 %19, label %mbedtls_ecp_get_type.exit18.thread, label %20

20:                                               ; preds = %16
  %21 = getelementptr inbounds nuw i8, ptr %0, i64 72
  %22 = load ptr, ptr %21, align 8, !tbaa !26
  %23 = icmp eq ptr %22, null
  br i1 %23, label %mbedtls_ecp_get_type.exit, label %mbedtls_ecp_get_type.exit18

mbedtls_ecp_get_type.exit:                        ; preds = %20
  %24 = tail call i32 @mbedtls_mpi_write_binary_le(ptr noundef nonnull %12, ptr noundef %2, i64 noundef %8) #21
  br label %mbedtls_ecp_get_type.exit18.thread

mbedtls_ecp_get_type.exit18:                      ; preds = %20
  %25 = tail call i32 @mbedtls_mpi_write_binary(ptr noundef nonnull %12, ptr noundef %2, i64 noundef %8) #21
  br label %mbedtls_ecp_get_type.exit18.thread

mbedtls_ecp_get_type.exit18.thread:               ; preds = %16, %11, %mbedtls_ecp_get_type.exit18, %mbedtls_ecp_get_type.exit, %10
  %.0 = phi i32 [ -20224, %10 ], [ %24, %mbedtls_ecp_get_type.exit ], [ %25, %mbedtls_ecp_get_type.exit18 ], [ -20352, %11 ], [ -110, %16 ]
  ret i32 %.0
}